; Function Attrs: mustprogress nofree norecurse nosync nounwind willreturn memory(argmem: readwrite) uwtable
define void @_ZNK6icu_778numparse4impl21RequireAffixValidator11postProcessERNS1_12ParsedNumberE(ptr nonnull readnone align 8 captures(none) %0, ptr noundef nonnull align 8 captures(none) dereferenceable(216) %1) unnamed_addr #0 align 2 {
  %3 = getelementptr inbounds nuw i8, ptr %1, i64 88
  %4 = load i16, ptr %3, align 8, !tbaa !3
  %5 = and i16 %4, 1
  %.not = icmp eq i16 %5, 0
  br i1 %.not, label %6, label %10

6:                                                ; preds = %2
  %7 = getelementptr inbounds nuw i8, ptr %1, i64 152
  %8 = load i16, ptr %7, align 8, !tbaa !3
  %9 = and i16 %8, 1
  %.not3 = icmp eq i16 %9, 0
  br i1 %.not3, label %14, label %10

10:                                               ; preds = %6, %2
  %11 = getelementptr inbounds nuw i8, ptr %1, i64 76
  %12 = load i32, ptr %11, align 4, !tbaa !6
  %13 = or i32 %12, 256
  store i32 %13, ptr %11, align 4, !tbaa !6
  br label %14

14:                                               ; preds = %10, %6
  ret void
}